; Function Attrs: mustprogress nounwind uwtable
define void @_ZN6icu_7717CollationIterator8CEBufferD2Ev(ptr noundef nonnull readonly align 8 captures(none) dereferenceable(344) %0) unnamed_addr #0 align 2 personality ptr @__gxx_personality_v0 {
  %2 = getelementptr inbounds nuw i8, ptr %0, i64 20
  %3 = load i8, ptr %2, align 4, !tbaa !15
  %.not.i.i = icmp eq i8 %3, 0
  br i1 %.not.i.i, label %_ZN6icu_7715MaybeStackArrayIlLi40EED2Ev.exit, label %4

4:                                                ; preds = %1
  %5 = getelementptr inbounds nuw i8, ptr %0, i64 8
  %6 = load ptr, ptr %5, align 8, !tbaa !18
  invoke void @uprv_free_77(ptr noundef %6)
          to label %_ZN6icu_7715MaybeStackArrayIlLi40EED2Ev.exit unwind label %7

7:                                                ; preds = %4
  %8 = landingpad { ptr, i32 }
          catch ptr null
  %9 = extractvalue { ptr, i32 } %8, 0
  tail call void @__clang_call_terminate(ptr %9) #23
  unreachable

_ZN6icu_7715MaybeStackArrayIlLi40EED2Ev.exit:     ; preds = %1, %4
  ret void
}